; Function Attrs: nounwind uwtable
define ptr @l_Lean_Compiler_LCNF_Simp_inlineCandidate_x3f___lambda__6(i8 noundef zeroext %0, ptr noundef %1, ptr noundef %2, ptr noundef readnone captures(none) %3, ptr noundef %4, ptr noundef %5, ptr noundef %6, ptr noundef %7, ptr noundef %8, ptr noundef %9, ptr noundef %10, ptr noundef %11) local_unnamed_addr #1 {
  %13 = icmp eq i8 %0, 0
  br i1 %13, label %14, label %16

14:                                               ; preds = %12
  %15 = tail call ptr @l_Lean_Compiler_LCNF_Simp_inlineCandidate_x3f___lambda__5(ptr noundef %1, ptr noundef %2, ptr nonnull poison, ptr noundef %4, ptr noundef %5, ptr noundef %6, ptr noundef %7, ptr noundef %8, ptr noundef %9, ptr noundef %10, ptr noundef %11)
  br label %23

16:                                               ; preds = %12
  tail call void @lean_inc_heartbeat() #5
  %17 = tail call noalias ptr @mi_malloc_small(i64 noundef 24) #5
  %18 = icmp eq ptr %17, null
  br i1 %18, label %19, label %lean_alloc_ctor.exit

19:                                               ; preds = %16
  tail call void @lean_internal_panic_out_of_memory() #6
  unreachable

lean_alloc_ctor.exit:                             ; preds = %16
  %20 = getelementptr inbounds nuw i8, ptr %17, i64 4
  store i32 1, ptr %17, align 4, !tbaa !10
  store i32 131096, ptr %20, align 4
  %21 = getelementptr inbounds nuw i8, ptr %17, i64 8
  store ptr inttoptr (i64 3 to ptr), ptr %21, align 8, !tbaa !4
  %22 = getelementptr inbounds nuw i8, ptr %17, i64 16
  store ptr %11, ptr %22, align 8, !tbaa !4
  br label %23

23:                                               ; preds = %lean_alloc_ctor.exit, %14
  %.0 = phi ptr [ %15, %14 ], [ %17, %lean_alloc_ctor.exit ]
  ret ptr %.0
}